; Function Attrs: nounwind sspstrong uwtable
define hidden i64 @rb_dump_literal(i64 noundef %0) local_unnamed_addr #0 {
  %2 = icmp eq i64 %0, 0
  %3 = and i64 %0, 7
  %4 = icmp ne i64 %3, 0
  %5 = or i1 %2, %4
  br i1 %5, label %16, label %6

6:                                                ; preds = %1
  %7 = inttoptr i64 %0 to ptr
  %8 = load i64, ptr %7, align 8, !tbaa !7
  %9 = trunc i64 %8 to i32
  %10 = and i32 %9, 31
  switch i32 %10, label %16 [
    i32 2, label %rbimpl_RB_TYPE_P_fastpath.exit.i
    i32 3, label %rbimpl_RB_TYPE_P_fastpath.exit.i
    i32 28, label %rbimpl_RB_TYPE_P_fastpath.exit.i
  ]

rbimpl_RB_TYPE_P_fastpath.exit.i:                 ; preds = %6, %6, %6
  %11 = tail call i64 @rb_class_path(i64 noundef %0) #5
  %12 = load i64, ptr %7, align 8, !tbaa !7
  %13 = and i64 %12, 8223
  %or.cond = icmp eq i64 %13, 8194
  br i1 %or.cond, label %14, label %.thread

14:                                               ; preds = %rbimpl_RB_TYPE_P_fastpath.exit.i
  %15 = tail call i64 (ptr, ...) @rb_sprintf(ptr noundef nonnull @.str, i64 noundef %11) #5
  br label %.thread

16:                                               ; preds = %6, %1
  %17 = tail call i64 @rb_inspect(i64 noundef %0) #5
  br label %.thread

.thread:                                          ; preds = %rbimpl_RB_TYPE_P_fastpath.exit.i, %14, %16
  %.1 = phi i64 [ %17, %16 ], [ %15, %14 ], [ %11, %rbimpl_RB_TYPE_P_fastpath.exit.i ]
  ret i64 %.1
}